target datalayout = "e-m:e-p270:32:32-p271:32:32-p272:64:64-i64:64-i128:128-f80:128-n8:16:32:64-S128"
target triple = "x86_64-pc-linux-gnu"

%struct.Dch_Pars_t_ = type { i32, i32, i32, i32, i32, i32, i32, i32, i32, i32, i32, i32, i32, i32, i64, i32, i32 }
%struct.Dch_Man_t_ = type { ptr, ptr, ptr, ptr, ptr, ptr, i32, ptr, ptr, i32, i32, ptr, ptr, ptr, i32, i32, i32, i32, i32, i32, i32, i32, i32, i32, i32, i64, i64, i64, i64, i64, i64, i64, i64, i64 }
%struct.Aig_Man_t_ = type { ptr, ptr, ptr, ptr, ptr, ptr, ptr, %struct.Aig_Obj_t_, i32, i32, i32, i32, i32, i32, [7 x i32], i32, ptr, i32, ptr, i32, ptr, i32, i32, i32, ptr, i32, i32, i32, i32, i32, ptr, ptr, i32, ptr, ptr, i32, ptr, ptr, i32, i32, i32, ptr, ptr, ptr, ptr, ptr, ptr, ptr, ptr, ptr, ptr, ptr, ptr, ptr, ptr, i32, ptr, ptr, ptr, ptr, i32, i64, i64, i64, ptr, ptr }
%struct.Aig_Obj_t_ = type { %union.anon, ptr, ptr, i64, i32, i32, %union.anon.0 }
%union.anon = type { ptr }
%union.anon.0 = type { ptr }
%struct.timespec = type { i64, i64 }

@.str = private unnamed_addr constant [28 x i8] c"Old choice computation time\00", align 1
@.str.1 = private unnamed_addr constant [60 x i8] c"STATS:  Ands:%8d  ->%8d.  Reprs:%7d  ->%7d.  Choices =%7d.\0A\00", align 1
@.str.2 = private unnamed_addr constant [5 x i8] c"%s =\00", align 1
@.str.3 = private unnamed_addr constant [11 x i8] c"%9.2f sec\0A\00", align 1

; Function Attrs: inlinehint nounwind uwtable
define internal i32 @Aig_ManNodeNum(ptr noundef %0) #4 {
  %2 = alloca ptr, align 8
  store ptr %0, ptr %2, align 8, !tbaa !23
  %3 = load ptr, ptr %2, align 8, !tbaa !23
  %4 = getelementptr inbounds nuw %struct.Aig_Man_t_, ptr %3, i32 0, i32 14
  %5 = getelementptr inbounds [7 x i32], ptr %4, i64 0, i64 5
  %6 = load i32, ptr %5, align 4, !tbaa !47
  %7 = load ptr, ptr %2, align 8, !tbaa !23
  %8 = getelementptr inbounds nuw %struct.Aig_Man_t_, ptr %7, i32 0, i32 14
  %9 = getelementptr inbounds [7 x i32], ptr %8, i64 0, i64 6
  %10 = load i32, ptr %9, align 8, !tbaa !47
  %11 = add nsw i32 %6, %10
  ret i32 %11
}

; Function Attrs: inlinehint nounwind uwtable
define internal void @Abc_PrintTime(i32 noundef %0, ptr noundef %1, i64 noundef %2) #4 {
  %4 = alloca i32, align 4
  %5 = alloca ptr, align 8
  %6 = alloca i64, align 8
  store i32 %0, ptr %4, align 4, !tbaa !47
  store ptr %1, ptr %5, align 8, !tbaa !48
  store i64 %2, ptr %6, align 8, !tbaa !25
  %7 = load ptr, ptr %5, align 8, !tbaa !48
  call void (i32, ptr, ...) @Abc_Print(i32 noundef 1, ptr noundef @.str.2, ptr noundef %7)
  %8 = load i64, ptr %6, align 8, !tbaa !25
  %9 = sitofp i64 %8 to double
  %10 = fmul double 1.000000e+00, %9
  %11 = fdiv double %10, 1.000000e+06
  call void (i32, ptr, ...) @Abc_Print(i32 noundef 1, ptr noundef @.str.3, double noundef %11)
  ret void
}

; Function Attrs: inlinehint nounwind uwtable
define internal i64 @Abc_Clock() #4 {
  %1 = alloca i64, align 8
  %2 = alloca %struct.timespec, align 8
  %3 = alloca i32, align 4
  %4 = alloca i64, align 8
  call void @llvm.lifetime.start.p0(i64 16, ptr %2) #8
  %5 = call i32 @clock_gettime(i32 noundef 1, ptr noundef %2) #8
  %6 = icmp slt i32 %5, 0
  br i1 %6, label %7, label %8

7:                                                ; preds = %0
  store i64 -1, ptr %1, align 8
  store i32 1, ptr %3, align 4
  br label %19

8:                                                ; preds = %0
  call void @llvm.lifetime.start.p0(i64 8, ptr %4) #8
  %9 = getelementptr inbounds nuw %struct.timespec, ptr %2, i32 0, i32 0
  %10 = load i64, ptr %9, align 8, !tbaa !51
  %11 = mul nsw i64 %10, 1000000
  store i64 %11, ptr %4, align 8, !tbaa !25
  %12 = getelementptr inbounds nuw %struct.timespec, ptr %2, i32 0, i32 1
  %13 = load i64, ptr %12, align 8, !tbaa !53
  %14 = mul nsw i64 %13, 1000000
  %15 = sdiv i64 %14, 1000000000
  %16 = load i64, ptr %4, align 8, !tbaa !25
  %17 = add nsw i64 %16, %15
  store i64 %17, ptr %4, align 8, !tbaa !25
  %18 = load i64, ptr %4, align 8, !tbaa !25
  store i64 %18, ptr %1, align 8
  store i32 1, ptr %3, align 4
  call void @llvm.lifetime.end.p0(i64 8, ptr %4) #8
  br label %19

19:                                               ; preds = %8, %7
  call void @llvm.lifetime.end.p0(i64 16, ptr %2) #8
  %20 = load i64, ptr %1, align 8
  ret i64 %20
}

; Function Attrs: nounwind uwtable
define ptr @Dch_ComputeChoices(ptr noundef %0, ptr noundef %1) #0 {
  %3 = alloca ptr, align 8
  %4 = alloca ptr, align 8
  %5 = alloca ptr, align 8
  %6 = alloca ptr, align 8
  %7 = alloca i64, align 8
  %8 = alloca i64, align 8
  %9 = alloca i64, align 8
  store ptr %0, ptr %3, align 8, !tbaa !23
  store ptr %1, ptr %4, align 8, !tbaa !3
  call void @llvm.lifetime.start.p0(i64 8, ptr %5) #8
  call void @llvm.lifetime.start.p0(i64 8, ptr %6) #8
  call void @llvm.lifetime.start.p0(i64 8, ptr %7) #8
  call void @llvm.lifetime.start.p0(i64 8, ptr %8) #8
  %10 = call i64 @Abc_Clock()
  store i64 %10, ptr %8, align 8, !tbaa !25
  call void @llvm.lifetime.start.p0(i64 8, ptr %9) #8
  %11 = call i64 @Abc_Clock()
  store i64 %11, ptr %9, align 8, !tbaa !25
  %12 = call i32 @Aig_ManRandom(i32 noundef 1)
  %13 = load ptr, ptr %3, align 8, !tbaa !23
  %14 = load ptr, ptr %4, align 8, !tbaa !3
  %15 = call ptr @Dch_ManCreate(ptr noundef %13, ptr noundef %14)
  store ptr %15, ptr %5, align 8, !tbaa !26
  %16 = call i64 @Abc_Clock()
  store i64 %16, ptr %7, align 8, !tbaa !25
  %17 = load ptr, ptr %3, align 8, !tbaa !23
  %18 = load ptr, ptr %4, align 8, !tbaa !3
  %19 = getelementptr inbounds nuw %struct.Dch_Pars_t_, ptr %18, i32 0, i32 0
  %20 = load i32, ptr %19, align 8, !tbaa !8
  %21 = load ptr, ptr %4, align 8, !tbaa !3
  %22 = getelementptr inbounds nuw %struct.Dch_Pars_t_, ptr %21, i32 0, i32 13
  %23 = load i32, ptr %22, align 4, !tbaa !20
  %24 = call ptr @Dch_CreateCandEquivClasses(ptr noundef %17, i32 noundef %20, i32 noundef %23)
  %25 = load ptr, ptr %5, align 8, !tbaa !26
  %26 = getelementptr inbounds nuw %struct.Dch_Man_t_, ptr %25, i32 0, i32 3
  store ptr %24, ptr %26, align 8, !tbaa !28
  %27 = call i64 @Abc_Clock()
  %28 = load i64, ptr %7, align 8, !tbaa !25
  %29 = sub nsw i64 %27, %28
  %30 = load ptr, ptr %5, align 8, !tbaa !26
  %31 = getelementptr inbounds nuw %struct.Dch_Man_t_, ptr %30, i32 0, i32 25
  store i64 %29, ptr %31, align 8, !tbaa !35
  %32 = load ptr, ptr %5, align 8, !tbaa !26
  %33 = getelementptr inbounds nuw %struct.Dch_Man_t_, ptr %32, i32 0, i32 3
  %34 = load ptr, ptr %33, align 8, !tbaa !28
  %35 = call i32 @Dch_ClassesLitNum(ptr noundef %34)
  %36 = load ptr, ptr %5, align 8, !tbaa !26
  %37 = getelementptr inbounds nuw %struct.Dch_Man_t_, ptr %36, i32 0, i32 21
  store i32 %35, ptr %37, align 4, !tbaa !36
  %38 = load ptr, ptr %5, align 8, !tbaa !26
  call void @Dch_ManSweep(ptr noundef %38)
  %39 = call i64 @Abc_Clock()
  %40 = load i64, ptr %9, align 8, !tbaa !25
  %41 = sub nsw i64 %39, %40
  %42 = load ptr, ptr %5, align 8, !tbaa !26
  %43 = getelementptr inbounds nuw %struct.Dch_Man_t_, ptr %42, i32 0, i32 33
  store i64 %41, ptr %43, align 8, !tbaa !37
  %44 = load ptr, ptr %5, align 8, !tbaa !26
  call void @Dch_ManStop(ptr noundef %44)
  %45 = load ptr, ptr %4, align 8, !tbaa !3
  %46 = getelementptr inbounds nuw %struct.Dch_Pars_t_, ptr %45, i32 0, i32 13
  %47 = load i32, ptr %46, align 4, !tbaa !20
  %48 = icmp ne i32 %47, 0
  br i1 %48, label %49, label %53

49:                                               ; preds = %2
  %50 = call i64 @Abc_Clock()
  %51 = load i64, ptr %8, align 8, !tbaa !25
  %52 = sub nsw i64 %50, %51
  call void @Abc_PrintTime(i32 noundef 1, ptr noundef @.str, i64 noundef %52)
  br label %53

53:                                               ; preds = %49, %2
  %54 = load ptr, ptr %3, align 8, !tbaa !23
  %55 = getelementptr inbounds nuw %struct.Aig_Man_t_, ptr %54, i32 0, i32 16
  %56 = load ptr, ptr %55, align 8, !tbaa !38
  %57 = icmp ne ptr %56, null
  br i1 %57, label %58, label %64

58:                                               ; preds = %53
  %59 = load ptr, ptr %3, align 8, !tbaa !23
  %60 = getelementptr inbounds nuw %struct.Aig_Man_t_, ptr %59, i32 0, i32 16
  %61 = load ptr, ptr %60, align 8, !tbaa !38
  call void @free(ptr noundef %61) #8
  %62 = load ptr, ptr %3, align 8, !tbaa !23
  %63 = getelementptr inbounds nuw %struct.Aig_Man_t_, ptr %62, i32 0, i32 16
  store ptr null, ptr %63, align 8, !tbaa !38
  br label %65

64:                                               ; preds = %53
  br label %65

65:                                               ; preds = %64, %58
  %66 = load ptr, ptr %3, align 8, !tbaa !23
  %67 = load ptr, ptr %4, align 8, !tbaa !3
  %68 = getelementptr inbounds nuw %struct.Dch_Pars_t_, ptr %67, i32 0, i32 12
  %69 = load i32, ptr %68, align 8, !tbaa !19
  %70 = call ptr @Dch_DeriveChoiceAig(ptr noundef %66, i32 noundef %69)
  store ptr %70, ptr %6, align 8, !tbaa !23
  %71 = load ptr, ptr %4, align 8, !tbaa !3
  %72 = getelementptr inbounds nuw %struct.Dch_Pars_t_, ptr %71, i32 0, i32 13
  %73 = load i32, ptr %72, align 4, !tbaa !20
  %74 = icmp ne i32 %73, 0
  br i1 %74, label %75, label %86

75:                                               ; preds = %65
  %76 = load ptr, ptr %3, align 8, !tbaa !23
  %77 = call i32 @Aig_ManNodeNum(ptr noundef %76)
  %78 = load ptr, ptr %6, align 8, !tbaa !23
  %79 = call i32 @Aig_ManNodeNum(ptr noundef %78)
  %80 = load ptr, ptr %3, align 8, !tbaa !23
  %81 = call i32 @Dch_DeriveChoiceCountReprs(ptr noundef %80)
  %82 = load ptr, ptr %6, align 8, !tbaa !23
  %83 = call i32 @Dch_DeriveChoiceCountEquivs(ptr noundef %82)
  %84 = load ptr, ptr %6, align 8, !tbaa !23
  %85 = call i32 @Aig_ManChoiceNum(ptr noundef %84)
  call void (i32, ptr, ...) @Abc_Print(i32 noundef 1, ptr noundef @.str.1, i32 noundef %77, i32 noundef %79, i32 noundef %81, i32 noundef %83, i32 noundef %85)
  br label %86

86:                                               ; preds = %75, %65
  %87 = load ptr, ptr %6, align 8, !tbaa !23
  call void @llvm.lifetime.end.p0(i64 8, ptr %9) #8
  call void @llvm.lifetime.end.p0(i64 8, ptr %8) #8
  call void @llvm.lifetime.end.p0(i64 8, ptr %7) #8
  call void @llvm.lifetime.end.p0(i64 8, ptr %6) #8
  call void @llvm.lifetime.end.p0(i64 8, ptr %5) #8
  ret ptr %87
}