; Function Attrs: nounwind uwtable
define ptr @Dch_ComputeChoices(ptr noundef %0, ptr noundef %1) local_unnamed_addr #3 {
  %3 = alloca %struct.timespec, align 8
  %4 = alloca %struct.timespec, align 8
  %5 = alloca %struct.timespec, align 8
  %6 = alloca %struct.timespec, align 8
  %7 = alloca %struct.timespec, align 8
  %8 = alloca %struct.timespec, align 8
  call void @llvm.lifetime.start.p0(i64 16, ptr nonnull %8) #12
  %9 = call i32 @clock_gettime(i32 noundef 1, ptr noundef nonnull %8) #12
  %10 = icmp slt i32 %9, 0
  br i1 %10, label %Abc_Clock.exit, label %11

11:                                               ; preds = %2
  %12 = load i64, ptr %8, align 8, !tbaa !18
  %.neg48 = mul i64 %12, -1000000
  %13 = getelementptr inbounds nuw i8, ptr %8, i64 8
  %14 = load i64, ptr %13, align 8, !tbaa !20
  %.neg47 = sdiv i64 %14, -1000
  %.neg49 = add i64 %.neg47, %.neg48
  br label %Abc_Clock.exit

Abc_Clock.exit:                                   ; preds = %2, %11
  %.0.i.neg = phi i64 [ %.neg49, %11 ], [ 1, %2 ]
  call void @llvm.lifetime.end.p0(i64 16, ptr nonnull %8) #12
  call void @llvm.lifetime.start.p0(i64 16, ptr nonnull %7) #12
  %15 = call i32 @clock_gettime(i32 noundef 1, ptr noundef nonnull %7) #12
  %16 = icmp slt i32 %15, 0
  br i1 %16, label %Abc_Clock.exit33, label %17

17:                                               ; preds = %Abc_Clock.exit
  %18 = load i64, ptr %7, align 8, !tbaa !18
  %.neg45 = mul i64 %18, -1000000
  %19 = getelementptr inbounds nuw i8, ptr %7, i64 8
  %20 = load i64, ptr %19, align 8, !tbaa !20
  %.neg44 = sdiv i64 %20, -1000
  %.neg46 = add i64 %.neg44, %.neg45
  br label %Abc_Clock.exit33

Abc_Clock.exit33:                                 ; preds = %Abc_Clock.exit, %17
  %.0.i32.neg = phi i64 [ %.neg46, %17 ], [ 1, %Abc_Clock.exit ]
  call void @llvm.lifetime.end.p0(i64 16, ptr nonnull %7) #12
  %21 = call i32 @Aig_ManRandom(i32 noundef 1) #12
  %22 = call ptr @Dch_ManCreate(ptr noundef %0, ptr noundef %1) #12
  call void @llvm.lifetime.start.p0(i64 16, ptr nonnull %6) #12
  %23 = call i32 @clock_gettime(i32 noundef 1, ptr noundef nonnull %6) #12
  %24 = icmp slt i32 %23, 0
  br i1 %24, label %Abc_Clock.exit35, label %25

25:                                               ; preds = %Abc_Clock.exit33
  %26 = load i64, ptr %6, align 8, !tbaa !18
  %.neg42 = mul i64 %26, -1000000
  %27 = getelementptr inbounds nuw i8, ptr %6, i64 8
  %28 = load i64, ptr %27, align 8, !tbaa !20
  %.neg = sdiv i64 %28, -1000
  %.neg43 = add i64 %.neg, %.neg42
  br label %Abc_Clock.exit35

Abc_Clock.exit35:                                 ; preds = %Abc_Clock.exit33, %25
  %.0.i34.neg = phi i64 [ %.neg43, %25 ], [ 1, %Abc_Clock.exit33 ]
  call void @llvm.lifetime.end.p0(i64 16, ptr nonnull %6) #12
  %29 = load i32, ptr %1, align 8, !tbaa !3
  %30 = getelementptr inbounds nuw i8, ptr %1, i64 52
  %31 = load i32, ptr %30, align 4, !tbaa !15
  %32 = call ptr @Dch_CreateCandEquivClasses(ptr noundef %0, i32 noundef %29, i32 noundef %31) #12
  %33 = getelementptr inbounds nuw i8, ptr %22, i64 24
  store ptr %32, ptr %33, align 8, !tbaa !21
  call void @llvm.lifetime.start.p0(i64 16, ptr nonnull %5) #12
  %34 = call i32 @clock_gettime(i32 noundef 1, ptr noundef nonnull %5) #12
  %35 = icmp slt i32 %34, 0
  br i1 %35, label %Abc_Clock.exit37, label %36

36:                                               ; preds = %Abc_Clock.exit35
  %37 = load i64, ptr %5, align 8, !tbaa !18
  %38 = mul nsw i64 %37, 1000000
  %39 = getelementptr inbounds nuw i8, ptr %5, i64 8
  %40 = load i64, ptr %39, align 8, !tbaa !20
  %41 = sdiv i64 %40, 1000
  %42 = add nsw i64 %41, %38
  br label %Abc_Clock.exit37

Abc_Clock.exit37:                                 ; preds = %Abc_Clock.exit35, %36
  %.0.i36 = phi i64 [ %42, %36 ], [ -1, %Abc_Clock.exit35 ]
  call void @llvm.lifetime.end.p0(i64 16, ptr nonnull %5) #12
  %43 = add i64 %.0.i36, %.0.i34.neg
  %44 = getelementptr inbounds nuw i8, ptr %22, i64 152
  store i64 %43, ptr %44, align 8, !tbaa !31
  %45 = load ptr, ptr %33, align 8, !tbaa !21
  %46 = call i32 @Dch_ClassesLitNum(ptr noundef %45) #12
  %47 = getelementptr inbounds nuw i8, ptr %22, i64 132
  store i32 %46, ptr %47, align 4, !tbaa !32
  call void @Dch_ManSweep(ptr noundef nonnull %22) #12
  call void @llvm.lifetime.start.p0(i64 16, ptr nonnull %4) #12
  %48 = call i32 @clock_gettime(i32 noundef 1, ptr noundef nonnull %4) #12
  %49 = icmp slt i32 %48, 0
  br i1 %49, label %Abc_Clock.exit39, label %50

50:                                               ; preds = %Abc_Clock.exit37
  %51 = load i64, ptr %4, align 8, !tbaa !18
  %52 = mul nsw i64 %51, 1000000
  %53 = getelementptr inbounds nuw i8, ptr %4, i64 8
  %54 = load i64, ptr %53, align 8, !tbaa !20
  %55 = sdiv i64 %54, 1000
  %56 = add nsw i64 %55, %52
  br label %Abc_Clock.exit39

Abc_Clock.exit39:                                 ; preds = %Abc_Clock.exit37, %50
  %.0.i38 = phi i64 [ %56, %50 ], [ -1, %Abc_Clock.exit37 ]
  call void @llvm.lifetime.end.p0(i64 16, ptr nonnull %4) #12
  %57 = add i64 %.0.i38, %.0.i32.neg
  %58 = getelementptr inbounds nuw i8, ptr %22, i64 216
  store i64 %57, ptr %58, align 8, !tbaa !33
  call void @Dch_ManStop(ptr noundef nonnull %22) #12
  %59 = load i32, ptr %30, align 4, !tbaa !15
  %.not = icmp eq i32 %59, 0
  br i1 %.not, label %73, label %60

60:                                               ; preds = %Abc_Clock.exit39
  call void @llvm.lifetime.start.p0(i64 16, ptr nonnull %3) #12
  %61 = call i32 @clock_gettime(i32 noundef 1, ptr noundef nonnull %3) #12
  %62 = icmp slt i32 %61, 0
  br i1 %62, label %Abc_Clock.exit41, label %63

63:                                               ; preds = %60
  %64 = load i64, ptr %3, align 8, !tbaa !18
  %65 = mul nsw i64 %64, 1000000
  %66 = getelementptr inbounds nuw i8, ptr %3, i64 8
  %67 = load i64, ptr %66, align 8, !tbaa !20
  %68 = sdiv i64 %67, 1000
  %69 = add nsw i64 %68, %65
  br label %Abc_Clock.exit41

Abc_Clock.exit41:                                 ; preds = %60, %63
  %.0.i40 = phi i64 [ %69, %63 ], [ -1, %60 ]
  call void @llvm.lifetime.end.p0(i64 16, ptr nonnull %3) #12
  %70 = add i64 %.0.i40, %.0.i.neg
  call void (i32, ptr, ...) @Abc_Print(i32 poison, ptr noundef nonnull @.str.2, ptr noundef nonnull @.str)
  %71 = sitofp i64 %70 to double
  %72 = fdiv double %71, 1.000000e+06
  call void (i32, ptr, ...) @Abc_Print(i32 poison, ptr noundef nonnull @.str.3, double noundef %72)
  br label %73

73:                                               ; preds = %Abc_Clock.exit41, %Abc_Clock.exit39
  %74 = getelementptr inbounds nuw i8, ptr %0, i64 160
  %75 = load ptr, ptr %74, align 8, !tbaa !34
  %.not27 = icmp eq ptr %75, null
  br i1 %.not27, label %77, label %76

76:                                               ; preds = %73
  call void @free(ptr noundef nonnull %75) #12
  store ptr null, ptr %74, align 8, !tbaa !34
  br label %77

77:                                               ; preds = %73, %76
  %78 = getelementptr inbounds nuw i8, ptr %1, i64 48
  %79 = load i32, ptr %78, align 8, !tbaa !43
  %80 = call ptr @Dch_DeriveChoiceAig(ptr noundef nonnull %0, i32 noundef %79) #12
  %81 = load i32, ptr %30, align 4, !tbaa !15
  %.not28 = icmp eq i32 %81, 0
  br i1 %.not28, label %92, label %82

82:                                               ; preds = %77
  %83 = getelementptr i8, ptr %0, i64 148
  %.val = load i32, ptr %83, align 4, !tbaa !44
  %84 = getelementptr i8, ptr %0, i64 152
  %.val29 = load i32, ptr %84, align 8, !tbaa !44
  %85 = add nsw i32 %.val29, %.val
  %86 = getelementptr i8, ptr %80, i64 148
  %.val30 = load i32, ptr %86, align 4, !tbaa !44
  %87 = getelementptr i8, ptr %80, i64 152
  %.val31 = load i32, ptr %87, align 8, !tbaa !44
  %88 = add nsw i32 %.val31, %.val30
  %89 = call i32 @Dch_DeriveChoiceCountReprs(ptr noundef nonnull %0) #12
  %90 = call i32 @Dch_DeriveChoiceCountEquivs(ptr noundef %80) #12
  %91 = call i32 @Aig_ManChoiceNum(ptr noundef %80) #12
  call void (i32, ptr, ...) @Abc_Print(i32 poison, ptr noundef nonnull @.str.1, i32 noundef %85, i32 noundef %88, i32 noundef %89, i32 noundef %90, i32 noundef %91)
  br label %92

92:                                               ; preds = %82, %77
  ret ptr %80
}